; Function Attrs: mustprogress nounwind uwtable
define void @_Z12yyset_linenoiPv(i32 noundef %0, ptr nocapture noundef readonly %1) local_unnamed_addr #5 {
  %3 = getelementptr inbounds i8, ptr %1, i64 40
  %4 = load ptr, ptr %3, align 8
  %.not = icmp eq ptr %4, null
  br i1 %.not, label %.critedge, label %5

5:                                                ; preds = %2
  %6 = getelementptr inbounds i8, ptr %1, i64 24
  %7 = load i64, ptr %6, align 8
  %8 = getelementptr inbounds ptr, ptr %4, i64 %7
  %9 = load ptr, ptr %8, align 8
  %10 = icmp eq ptr %9, null
  br i1 %10, label %.critedge, label %11

.critedge:                                        ; preds = %2, %5
  tail call fastcc void @_ZL14yy_fatal_errorPKcPv(ptr noundef nonnull @.str.16) #45
  unreachable

11:                                               ; preds = %5
  %12 = getelementptr inbounds i8, ptr %9, i64 44
  store i32 %0, ptr %12, align 4
  ret void
}